; Function Attrs: mustprogress noinline uwtable
define void @_ZN7testing8internal31GetCurrentOsStackTraceExceptTopB5cxx11EPNS_8UnitTestEi(ptr dead_on_unwind noalias writable sret(%"class.std::__cxx11::basic_string") align 8 %0, ptr noundef readnone captures(none) %1, i32 noundef %2) local_unnamed_addr #33 personality ptr @__gxx_personality_v0 {
  %4 = load atomic i8, ptr @_ZGVZN7testing8UnitTest11GetInstanceEvE8instance acquire, align 8
  %5 = icmp eq i8 %4, 0
  br i1 %5, label %6, label %_ZN7testing8internal15GetUnitTestImplEv.exit, !prof !46

6:                                                ; preds = %3
  %7 = call i32 @__cxa_guard_acquire(ptr nonnull @_ZGVZN7testing8UnitTest11GetInstanceEvE8instance) #57
  %.not.i.i = icmp eq i32 %7, 0
  br i1 %.not.i.i, label %_ZN7testing8internal15GetUnitTestImplEv.exit, label %8

8:                                                ; preds = %6
  invoke void @_ZN7testing8UnitTestC1Ev(ptr noundef nonnull align 8 dereferenceable(72) @_ZZN7testing8UnitTest11GetInstanceEvE8instance)
          to label %9 unwind label %11

9:                                                ; preds = %8
  %10 = call i32 @__cxa_atexit(ptr nonnull @_ZN7testing8UnitTestD1Ev, ptr nonnull @_ZZN7testing8UnitTest11GetInstanceEvE8instance, ptr nonnull @__dso_handle) #57
  call void @__cxa_guard_release(ptr nonnull @_ZGVZN7testing8UnitTest11GetInstanceEvE8instance) #57
  br label %_ZN7testing8internal15GetUnitTestImplEv.exit

11:                                               ; preds = %8
  %12 = landingpad { ptr, i32 }
          cleanup
  call void @__cxa_guard_abort(ptr nonnull @_ZGVZN7testing8UnitTest11GetInstanceEvE8instance) #57
  resume { ptr, i32 } %12

_ZN7testing8internal15GetUnitTestImplEv.exit:     ; preds = %3, %6, %9
  %13 = load ptr, ptr getelementptr inbounds nuw (i8, ptr @_ZZN7testing8UnitTest11GetInstanceEvE8instance, i64 64), align 8, !tbaa !47
  %14 = add nsw i32 %2, 1
  call void @_ZN7testing8internal12UnitTestImpl28CurrentOsStackTraceExceptTopB5cxx11Ei(ptr dead_on_unwind writable sret(%"class.std::__cxx11::basic_string") align 8 %0, ptr noundef nonnull align 8 dereferenceable(601) %13, i32 noundef %14)
  ret void
}